; Function Attrs: nounwind uwtable
define noundef ptr @Abc_NtkDarOutdec(ptr noundef %0, i32 noundef %1, i32 noundef %2) local_unnamed_addr #1 {
  %4 = tail call ptr @Abc_NtkToDar(ptr noundef %0, i32 noundef 0, i32 noundef 1)
  %5 = icmp eq ptr %4, null
  br i1 %5, label %18, label %6

6:                                                ; preds = %3
  %7 = tail call ptr @Saig_ManDecPropertyOutput(ptr noundef nonnull %4, i32 noundef %1, i32 noundef %2) #19
  tail call void @Aig_ManStop(ptr noundef nonnull %4) #19
  %8 = icmp eq ptr %7, null
  br i1 %8, label %18, label %9

9:                                                ; preds = %6
  %10 = tail call ptr @Abc_NtkFromAigPhase(ptr noundef nonnull %7)
  %11 = load ptr, ptr %7, align 8
  %12 = tail call ptr @Extra_UtilStrsav(ptr noundef %11) #19
  %13 = getelementptr inbounds nuw i8, ptr %10, i64 8
  store ptr %12, ptr %13, align 8
  %14 = getelementptr inbounds nuw i8, ptr %7, i64 8
  %15 = load ptr, ptr %14, align 8
  %16 = tail call ptr @Extra_UtilStrsav(ptr noundef %15) #19
  %17 = getelementptr inbounds nuw i8, ptr %10, i64 16
  store ptr %16, ptr %17, align 8
  tail call void @Aig_ManStop(ptr noundef nonnull %7) #19
  br label %18

18:                                               ; preds = %6, %3, %9
  %.0 = phi ptr [ %10, %9 ], [ null, %3 ], [ null, %6 ]
  ret ptr %.0
}